target datalayout = "e-m:e-p270:32:32-p271:32:32-p272:64:64-i64:64-i128:128-f80:128-n8:16:32:64-S128"
target triple = "x86_64-pc-linux-gnu"

%struct.Percentile = type { i32, i32, i8, i8, i8, double, ptr }

; Function Attrs: nounwind uwtable
define internal i32 @percentBinarySearch(ptr noundef %0, double noundef %1, i32 noundef %2) #0 {
  %4 = alloca i32, align 4
  %5 = alloca ptr, align 8
  %6 = alloca double, align 8
  %7 = alloca i32, align 4
  %8 = alloca i32, align 4
  %9 = alloca i32, align 4
  %10 = alloca i32, align 4
  %11 = alloca double, align 8
  %12 = alloca i32, align 4
  store ptr %0, ptr %5, align 8, !tbaa !85
  store double %1, ptr %6, align 8, !tbaa !47
  store i32 %2, ptr %7, align 4, !tbaa !3
  call void @llvm.lifetime.start.p0(i64 4, ptr %8) #14
  store i32 0, ptr %8, align 4, !tbaa !3
  call void @llvm.lifetime.start.p0(i64 4, ptr %9) #14
  %13 = load ptr, ptr %5, align 8, !tbaa !85
  %14 = getelementptr inbounds nuw %struct.Percentile, ptr %13, i32 0, i32 1
  %15 = load i32, ptr %14, align 4, !tbaa !91
  %16 = sub i32 %15, 1
  store i32 %16, ptr %9, align 4, !tbaa !3
  br label %17

17:                                               ; preds = %52, %3
  %18 = load i32, ptr %9, align 4, !tbaa !3
  %19 = load i32, ptr %8, align 4, !tbaa !3
  %20 = icmp sge i32 %18, %19
  br i1 %20, label %21, label %53

21:                                               ; preds = %17
  call void @llvm.lifetime.start.p0(i64 4, ptr %10) #14
  %22 = load i32, ptr %8, align 4, !tbaa !3
  %23 = load i32, ptr %9, align 4, !tbaa !3
  %24 = add nsw i32 %22, %23
  %25 = sdiv i32 %24, 2
  store i32 %25, ptr %10, align 4, !tbaa !3
  call void @llvm.lifetime.start.p0(i64 8, ptr %11) #14
  %26 = load ptr, ptr %5, align 8, !tbaa !85
  %27 = getelementptr inbounds nuw %struct.Percentile, ptr %26, i32 0, i32 6
  %28 = load ptr, ptr %27, align 8, !tbaa !93
  %29 = load i32, ptr %10, align 4, !tbaa !3
  %30 = sext i32 %29 to i64
  %31 = getelementptr inbounds double, ptr %28, i64 %30
  %32 = load double, ptr %31, align 8, !tbaa !47
  store double %32, ptr %11, align 8, !tbaa !47
  %33 = load double, ptr %11, align 8, !tbaa !47
  %34 = load double, ptr %6, align 8, !tbaa !47
  %35 = fcmp olt double %33, %34
  br i1 %35, label %36, label %39

36:                                               ; preds = %21
  %37 = load i32, ptr %10, align 4, !tbaa !3
  %38 = add nsw i32 %37, 1
  store i32 %38, ptr %8, align 4, !tbaa !3
  br label %49

39:                                               ; preds = %21
  %40 = load double, ptr %11, align 8, !tbaa !47
  %41 = load double, ptr %6, align 8, !tbaa !47
  %42 = fcmp ogt double %40, %41
  br i1 %42, label %43, label %46

43:                                               ; preds = %39
  %44 = load i32, ptr %10, align 4, !tbaa !3
  %45 = sub nsw i32 %44, 1
  store i32 %45, ptr %9, align 4, !tbaa !3
  br label %48

46:                                               ; preds = %39
  %47 = load i32, ptr %10, align 4, !tbaa !3
  store i32 %47, ptr %4, align 4
  store i32 1, ptr %12, align 4
  br label %50

48:                                               ; preds = %43
  br label %49

49:                                               ; preds = %48, %36
  store i32 0, ptr %12, align 4
  br label %50

50:                                               ; preds = %49, %46
  call void @llvm.lifetime.end.p0(i64 8, ptr %11) #14
  call void @llvm.lifetime.end.p0(i64 4, ptr %10) #14
  %51 = load i32, ptr %12, align 4
  switch i32 %51, label %59 [
    i32 0, label %52
  ]

52:                                               ; preds = %50
  br label %17, !llvm.loop !592

53:                                               ; preds = %17
  %54 = load i32, ptr %7, align 4, !tbaa !3
  %55 = icmp ne i32 %54, 0
  br i1 %55, label %56, label %57

56:                                               ; preds = %53
  store i32 -1, ptr %4, align 4
  store i32 1, ptr %12, align 4
  br label %59

57:                                               ; preds = %53
  %58 = load i32, ptr %8, align 4, !tbaa !3
  store i32 %58, ptr %4, align 4
  store i32 1, ptr %12, align 4
  br label %59

59:                                               ; preds = %57, %56, %50
  call void @llvm.lifetime.end.p0(i64 4, ptr %9) #14
  call void @llvm.lifetime.end.p0(i64 4, ptr %8) #14
  %60 = load i32, ptr %4, align 4
  ret i32 %60
}

; Function Attrs: nounwind uwtable
define internal i32 @percentIsInfinity(double noundef %0) #0 {
  %2 = alloca double, align 8
  %3 = alloca i64, align 8
  store double %0, ptr %2, align 8, !tbaa !47
  call void @llvm.lifetime.start.p0(i64 8, ptr %3) #14
  call void @llvm.memcpy.p0.p0.i64(ptr align 8 %3, ptr align 8 %2, i64 8, i1 false)
  %4 = load i64, ptr %3, align 8, !tbaa !44
  %5 = lshr i64 %4, 52
  %6 = and i64 %5, 2047
  %7 = icmp eq i64 %6, 2047
  %8 = zext i1 %7 to i32
  call void @llvm.lifetime.end.p0(i64 8, ptr %3) #14
  ret i32 %8
}

; Function Attrs: nounwind uwtable
define internal void @percentInverse(ptr noundef %0, i32 noundef %1, ptr noundef %2) #0 {
  %4 = alloca ptr, align 8
  %5 = alloca i32, align 4
  %6 = alloca ptr, align 8
  %7 = alloca ptr, align 8
  %8 = alloca i32, align 4
  %9 = alloca double, align 8
  %10 = alloca i32, align 4
  %11 = alloca i32, align 4
  store ptr %0, ptr %4, align 8, !tbaa !25
  store i32 %1, ptr %5, align 4, !tbaa !3
  store ptr %2, ptr %6, align 8, !tbaa !27
  call void @llvm.lifetime.start.p0(i64 8, ptr %7) #14
  call void @llvm.lifetime.start.p0(i64 4, ptr %8) #14
  call void @llvm.lifetime.start.p0(i64 8, ptr %9) #14
  call void @llvm.lifetime.start.p0(i64 4, ptr %10) #14
  %12 = load ptr, ptr %4, align 8, !tbaa !25
  %13 = call ptr @sqlite3_aggregate_context(ptr noundef %12, i32 noundef 32)
  store ptr %13, ptr %7, align 8, !tbaa !85
  %14 = load ptr, ptr %6, align 8, !tbaa !27
  %15 = getelementptr inbounds ptr, ptr %14, i64 0
  %16 = load ptr, ptr %15, align 8, !tbaa !29
  %17 = call i32 @sqlite3_value_type(ptr noundef %16)
  store i32 %17, ptr %8, align 4, !tbaa !3
  %18 = load i32, ptr %8, align 4, !tbaa !3
  %19 = icmp eq i32 %18, 5
  br i1 %19, label %20, label %21

20:                                               ; preds = %3
  store i32 1, ptr %11, align 4
  br label %93

21:                                               ; preds = %3
  %22 = load i32, ptr %8, align 4, !tbaa !3
  %23 = icmp ne i32 %22, 1
  br i1 %23, label %24, label %28

24:                                               ; preds = %21
  %25 = load i32, ptr %8, align 4, !tbaa !3
  %26 = icmp ne i32 %25, 2
  br i1 %26, label %27, label %28

27:                                               ; preds = %24
  store i32 1, ptr %11, align 4
  br label %93

28:                                               ; preds = %24, %21
  %29 = load ptr, ptr %6, align 8, !tbaa !27
  %30 = getelementptr inbounds ptr, ptr %29, i64 0
  %31 = load ptr, ptr %30, align 8, !tbaa !29
  %32 = call double @sqlite3_value_double(ptr noundef %31)
  store double %32, ptr %9, align 8, !tbaa !47
  %33 = load double, ptr %9, align 8, !tbaa !47
  %34 = call i32 @percentIsInfinity(double noundef %33)
  %35 = icmp ne i32 %34, 0
  br i1 %35, label %36, label %37

36:                                               ; preds = %28
  store i32 1, ptr %11, align 4
  br label %93

37:                                               ; preds = %28
  %38 = load ptr, ptr %7, align 8, !tbaa !85
  %39 = getelementptr inbounds nuw %struct.Percentile, ptr %38, i32 0, i32 2
  %40 = load i8, ptr %39, align 8, !tbaa !95
  %41 = sext i8 %40 to i32
  %42 = icmp eq i32 %41, 0
  br i1 %42, label %43, label %52

43:                                               ; preds = %37
  %44 = load ptr, ptr %7, align 8, !tbaa !85
  %45 = getelementptr inbounds nuw %struct.Percentile, ptr %44, i32 0, i32 6
  %46 = load ptr, ptr %45, align 8, !tbaa !93
  %47 = load ptr, ptr %7, align 8, !tbaa !85
  %48 = getelementptr inbounds nuw %struct.Percentile, ptr %47, i32 0, i32 1
  %49 = load i32, ptr %48, align 4, !tbaa !91
  call void @percentSort(ptr noundef %46, i32 noundef %49)
  %50 = load ptr, ptr %7, align 8, !tbaa !85
  %51 = getelementptr inbounds nuw %struct.Percentile, ptr %50, i32 0, i32 2
  store i8 1, ptr %51, align 8, !tbaa !95
  br label %52

52:                                               ; preds = %43, %37
  %53 = load ptr, ptr %7, align 8, !tbaa !85
  %54 = getelementptr inbounds nuw %struct.Percentile, ptr %53, i32 0, i32 3
  store i8 1, ptr %54, align 1, !tbaa !96
  %55 = load ptr, ptr %7, align 8, !tbaa !85
  %56 = load double, ptr %9, align 8, !tbaa !47
  %57 = call i32 @percentBinarySearch(ptr noundef %55, double noundef %56, i32 noundef 1)
  store i32 %57, ptr %10, align 4, !tbaa !3
  %58 = load i32, ptr %10, align 4, !tbaa !3
  %59 = icmp sge i32 %58, 0
  br i1 %59, label %60, label %92

60:                                               ; preds = %52
  %61 = load ptr, ptr %7, align 8, !tbaa !85
  %62 = getelementptr inbounds nuw %struct.Percentile, ptr %61, i32 0, i32 1
  %63 = load i32, ptr %62, align 4, !tbaa !91
  %64 = add i32 %63, -1
  store i32 %64, ptr %62, align 4, !tbaa !91
  %65 = load i32, ptr %10, align 4, !tbaa !3
  %66 = load ptr, ptr %7, align 8, !tbaa !85
  %67 = getelementptr inbounds nuw %struct.Percentile, ptr %66, i32 0, i32 1
  %68 = load i32, ptr %67, align 4, !tbaa !91
  %69 = icmp slt i32 %65, %68
  br i1 %69, label %70, label %91

70:                                               ; preds = %60
  %71 = load ptr, ptr %7, align 8, !tbaa !85
  %72 = getelementptr inbounds nuw %struct.Percentile, ptr %71, i32 0, i32 6
  %73 = load ptr, ptr %72, align 8, !tbaa !93
  %74 = load i32, ptr %10, align 4, !tbaa !3
  %75 = sext i32 %74 to i64
  %76 = getelementptr inbounds double, ptr %73, i64 %75
  %77 = load ptr, ptr %7, align 8, !tbaa !85
  %78 = getelementptr inbounds nuw %struct.Percentile, ptr %77, i32 0, i32 6
  %79 = load ptr, ptr %78, align 8, !tbaa !93
  %80 = load i32, ptr %10, align 4, !tbaa !3
  %81 = add nsw i32 %80, 1
  %82 = sext i32 %81 to i64
  %83 = getelementptr inbounds double, ptr %79, i64 %82
  %84 = load ptr, ptr %7, align 8, !tbaa !85
  %85 = getelementptr inbounds nuw %struct.Percentile, ptr %84, i32 0, i32 1
  %86 = load i32, ptr %85, align 4, !tbaa !91
  %87 = load i32, ptr %10, align 4, !tbaa !3
  %88 = sub i32 %86, %87
  %89 = zext i32 %88 to i64
  %90 = mul i64 %89, 8
  call void @llvm.memmove.p0.p0.i64(ptr align 8 %76, ptr align 8 %83, i64 %90, i1 false)
  br label %91

91:                                               ; preds = %70, %60
  br label %92

92:                                               ; preds = %91, %52
  store i32 0, ptr %11, align 4
  br label %93

93:                                               ; preds = %92, %36, %27, %20
  call void @llvm.lifetime.end.p0(i64 4, ptr %10) #14
  call void @llvm.lifetime.end.p0(i64 8, ptr %9) #14
  call void @llvm.lifetime.end.p0(i64 4, ptr %8) #14
  call void @llvm.lifetime.end.p0(i64 8, ptr %7) #14
  %94 = load i32, ptr %11, align 4
  switch i32 %94, label %96 [
    i32 0, label %95
    i32 1, label %95
  ]

95:                                               ; preds = %93, %93
  ret void

96:                                               ; preds = %93
  unreachable
}