; Function Attrs: nounwind uwtable
define internal void @percentInverse(ptr noundef %0, i32 %1, ptr noundef readonly captures(none) %2) #2 {
  %4 = tail call ptr @sqlite3_aggregate_context(ptr noundef %0, i32 noundef 32) #43
  %5 = load ptr, ptr %2, align 8, !tbaa !18
  %6 = tail call i32 @sqlite3_value_type(ptr noundef %5) #43
  %7 = add i32 %6, -3
  %or.cond = icmp ult i32 %7, -2
  br i1 %or.cond, label %percentBinarySearch.exit.thread, label %8

8:                                                ; preds = %3
  %9 = load ptr, ptr %2, align 8, !tbaa !18
  %10 = tail call double @sqlite3_value_double(ptr noundef %9) #43
  %11 = tail call double @llvm.fabs.f64(double %10)
  %12 = fcmp ueq double %11, 0x7FF0000000000000
  br i1 %12, label %percentBinarySearch.exit.thread, label %13

13:                                               ; preds = %8
  %14 = getelementptr inbounds nuw i8, ptr %4, i64 8
  %15 = load i8, ptr %14, align 8, !tbaa !79
  %16 = icmp eq i8 %15, 0
  br i1 %16, label %17, label %22

17:                                               ; preds = %13
  %18 = getelementptr inbounds nuw i8, ptr %4, i64 24
  %19 = load ptr, ptr %18, align 8, !tbaa !77
  %20 = getelementptr inbounds nuw i8, ptr %4, i64 4
  %21 = load i32, ptr %20, align 4, !tbaa !75
  tail call fastcc void @percentSort(ptr noundef %19, i32 noundef %21)
  store i8 1, ptr %14, align 8, !tbaa !79
  br label %22

22:                                               ; preds = %17, %13
  %23 = getelementptr inbounds nuw i8, ptr %4, i64 9
  store i8 1, ptr %23, align 1, !tbaa !80
  %24 = getelementptr inbounds nuw i8, ptr %4, i64 4
  %25 = load i32, ptr %24, align 4, !tbaa !75
  %26 = add i32 %25, -1
  %.not32.i = icmp slt i32 %26, 0
  br i1 %.not32.i, label %percentBinarySearch.exit.thread, label %.lr.ph.i

.lr.ph.i:                                         ; preds = %22
  %27 = getelementptr inbounds nuw i8, ptr %4, i64 24
  %28 = load ptr, ptr %27, align 8, !tbaa !77
  br label %29

29:                                               ; preds = %42, %.lr.ph.i
  %.01834.i = phi i32 [ 0, %.lr.ph.i ], [ %.220.i, %42 ]
  %.02133.i = phi i32 [ %26, %.lr.ph.i ], [ %.223.i, %42 ]
  %30 = add nuw nsw i32 %.02133.i, %.01834.i
  %31 = lshr i32 %30, 1
  %32 = zext nneg i32 %31 to i64
  %33 = getelementptr inbounds nuw double, ptr %28, i64 %32
  %34 = load double, ptr %33, align 8, !tbaa !78
  %35 = fcmp olt double %34, %10
  br i1 %35, label %36, label %38

36:                                               ; preds = %29
  %37 = add nuw nsw i32 %31, 1
  br label %42

38:                                               ; preds = %29
  %39 = fcmp ogt double %34, %10
  br i1 %39, label %40, label %percentBinarySearch.exit

40:                                               ; preds = %38
  %41 = add nsw i32 %31, -1
  br label %42

42:                                               ; preds = %40, %36
  %.223.i = phi i32 [ %.02133.i, %36 ], [ %41, %40 ]
  %.220.i = phi i32 [ %37, %36 ], [ %.01834.i, %40 ]
  %.not.i = icmp slt i32 %.223.i, %.220.i
  br i1 %.not.i, label %percentBinarySearch.exit.thread, label %29, !llvm.loop !81

percentBinarySearch.exit:                         ; preds = %38
  store i32 %26, ptr %24, align 4, !tbaa !75
  %43 = icmp slt i32 %31, %26
  br i1 %43, label %44, label %percentBinarySearch.exit.thread

44:                                               ; preds = %percentBinarySearch.exit
  %45 = getelementptr inbounds nuw double, ptr %28, i64 %32
  %46 = getelementptr inbounds nuw i8, ptr %45, i64 8
  %47 = sub nsw i32 %26, %31
  %48 = zext i32 %47 to i64
  %49 = shl nuw nsw i64 %48, 3
  tail call void @llvm.memmove.p0.p0.i64(ptr nonnull align 8 %45, ptr nonnull align 8 %46, i64 %49, i1 false)
  br label %percentBinarySearch.exit.thread

percentBinarySearch.exit.thread:                  ; preds = %42, %22, %44, %percentBinarySearch.exit, %8, %3
  ret void
}